; Function Attrs: mustprogress uwtable
define void @_ZN18duckdb_fastpforlib8internal12__fastpack21EPKmPj(ptr noalias noundef %0, ptr noalias noundef initializes((0, 8)) %1) local_unnamed_addr #5 {
  tail call void @llvm.experimental.noalias.scope.decl(metadata !14195)
  tail call void @llvm.experimental.noalias.scope.decl(metadata !14198)
  %3 = load i64, ptr %0, align 8, !tbaa !9, !alias.scope !14195, !noalias !14198
  %4 = trunc i64 %3 to i32
  %5 = and i32 %4, 2097151
  tail call void @llvm.experimental.noalias.scope.decl(metadata !14200)
  tail call void @llvm.experimental.noalias.scope.decl(metadata !14203)
  %6 = getelementptr inbounds nuw i8, ptr %0, i64 8
  %7 = load i64, ptr %6, align 8, !tbaa !9, !alias.scope !14205, !noalias !14206
  %.tr.i.i.i = trunc i64 %7 to i32
  %8 = shl i32 %.tr.i.i.i, 21
  %9 = or disjoint i32 %8, %5
  store i32 %9, ptr %1, align 4, !tbaa !7, !alias.scope !14206, !noalias !14205
  %10 = getelementptr inbounds nuw i8, ptr %1, i64 4
  %11 = lshr i32 %.tr.i.i.i, 11
  %12 = and i32 %11, 1023
  store i32 %12, ptr %10, align 4, !tbaa !7, !alias.scope !14206, !noalias !14205
  tail call void @_ZN18duckdb_fastpforlib8internal8UnrollerILt21ELt2EE4PackEPKmPj(ptr noundef nonnull %0, ptr noundef nonnull %10)
  ret void
}